; Function Attrs: mustprogress nofree norecurse nosync nounwind willreturn memory(argmem: write) uwtable
define hidden void @_ZN2cv12FilterEngineC2Ev(ptr nocapture noundef nonnull writeonly align 8 dereferenceable(304) %0) unnamed_addr #8 align 2 {
  store ptr getelementptr inbounds inrange(-16, 48) (i8, ptr @_ZTVN2cv12FilterEngineE, i64 16), ptr %0, align 8
  %2 = getelementptr inbounds i8, ptr %0, i64 8
  store i32 -1, ptr %2, align 8
  %3 = getelementptr inbounds i8, ptr %0, i64 12
  store i32 -1, ptr %3, align 4
  %4 = getelementptr inbounds i8, ptr %0, i64 16
  store i32 -1, ptr %4, align 8
  %5 = getelementptr inbounds i8, ptr %0, i64 20
  %6 = getelementptr inbounds i8, ptr %0, i64 40
  tail call void @llvm.memset.p0.i64(ptr noundef nonnull align 4 dereferenceable(20) %5, i8 0, i64 20, i1 false)
  store i32 -1, ptr %6, align 8
  %7 = getelementptr inbounds i8, ptr %0, i64 44
  store i32 -1, ptr %7, align 4
  %8 = getelementptr inbounds i8, ptr %0, i64 48
  %9 = getelementptr inbounds i8, ptr %0, i64 72
  tail call void @llvm.memset.p0.i64(ptr noundef nonnull align 8 dereferenceable(24) %8, i8 0, i64 24, i1 false)
  store i32 1, ptr %9, align 8
  %10 = getelementptr inbounds i8, ptr %0, i64 76
  store i32 1, ptr %10, align 4
  %11 = getelementptr inbounds i8, ptr %0, i64 80
  %12 = getelementptr inbounds i8, ptr %0, i64 112
  tail call void @llvm.memset.p0.i64(ptr noundef nonnull align 8 dereferenceable(28) %11, i8 0, i64 28, i1 false)
  tail call void @llvm.memset.p0.i64(ptr noundef nonnull align 8 dereferenceable(192) %12, i8 0, i64 192, i1 false)
  ret void
}